target datalayout = "e-m:e-p270:32:32-p271:32:32-p272:64:64-i64:64-i128:128-f80:128-n8:16:32:64-S128"
target triple = "x86_64-pc-linux-gnu"

%struct.opts_t = type { i32, i32, i32, i32, i32, i32, i32, i32, i32, ptr, ptr, ptr }

@stderr = external global ptr, align 8
@.str.11 = private unnamed_addr constant [26 x i8] c"ill-formed int pair \22%s\22 \00", align 1
@.str.12 = private unnamed_addr constant [25 x i8] c"ill-formed integer \22%s\22 \00", align 1
@.str.13 = private unnamed_addr constant [26 x i8] c"integer \22%s\22 less than %d\00", align 1

; Function Attrs: nounwind uwtable
define internal i32 @readPos(ptr noundef %0, ptr noundef %1) #0 {
  %3 = alloca i32, align 4
  %4 = alloca ptr, align 8
  %5 = alloca ptr, align 8
  %6 = alloca i64, align 8
  %7 = alloca i32, align 4
  store ptr %0, ptr %4, align 8, !tbaa !30
  store ptr %1, ptr %5, align 8, !tbaa !8
  call void @llvm.lifetime.start.p0(i64 8, ptr %6) #8
  %8 = load ptr, ptr %4, align 8, !tbaa !30
  %9 = load ptr, ptr %5, align 8, !tbaa !8
  %10 = call i64 @strtoul(ptr noundef %8, ptr noundef %9, i32 noundef 10) #8
  store i64 %10, ptr %6, align 8, !tbaa !37
  %11 = load ptr, ptr %4, align 8, !tbaa !30
  %12 = load ptr, ptr %5, align 8, !tbaa !8
  %13 = load ptr, ptr %12, align 8, !tbaa !30
  %14 = icmp eq ptr %11, %13
  br i1 %14, label %18, label %15

15:                                               ; preds = %2
  %16 = load i64, ptr %6, align 8, !tbaa !37
  %17 = icmp ugt i64 %16, 4294967295
  br i1 %17, label %18, label %22

18:                                               ; preds = %15, %2
  %19 = load ptr, ptr @stderr, align 8, !tbaa !31
  %20 = load ptr, ptr %4, align 8, !tbaa !30
  %21 = call i32 (ptr, ptr, ...) @fprintf(ptr noundef %19, ptr noundef @.str.12, ptr noundef %20) #8
  store i32 0, ptr %3, align 4
  store i32 1, ptr %7, align 4
  br label %32

22:                                               ; preds = %15
  %23 = load i64, ptr %6, align 8, !tbaa !37
  %24 = icmp ult i64 %23, 1
  br i1 %24, label %25, label %29

25:                                               ; preds = %22
  %26 = load ptr, ptr @stderr, align 8, !tbaa !31
  %27 = load ptr, ptr %4, align 8, !tbaa !30
  %28 = call i32 (ptr, ptr, ...) @fprintf(ptr noundef %26, ptr noundef @.str.13, ptr noundef %27, i32 noundef 1) #8
  store i32 0, ptr %3, align 4
  store i32 1, ptr %7, align 4
  br label %32

29:                                               ; preds = %22
  %30 = load i64, ptr %6, align 8, !tbaa !37
  %31 = trunc i64 %30 to i32
  store i32 %31, ptr %3, align 4
  store i32 1, ptr %7, align 4
  br label %32

32:                                               ; preds = %29, %25, %18
  call void @llvm.lifetime.end.p0(i64 8, ptr %6) #8
  %33 = load i32, ptr %3, align 4
  ret i32 %33
}

; Function Attrs: nounwind uwtable
define internal i32 @setTwo(ptr noundef %0, ptr noundef %1) #0 {
  %3 = alloca i32, align 4
  %4 = alloca ptr, align 8
  %5 = alloca ptr, align 8
  %6 = alloca ptr, align 8
  %7 = alloca i32, align 4
  %8 = alloca i32, align 4
  %9 = alloca ptr, align 8
  store ptr %0, ptr %4, align 8, !tbaa !30
  store ptr %1, ptr %5, align 8, !tbaa !19
  call void @llvm.lifetime.start.p0(i64 8, ptr %6) #8
  call void @llvm.lifetime.start.p0(i64 4, ptr %7) #8
  %10 = load ptr, ptr %4, align 8, !tbaa !30
  %11 = call i32 @readPos(ptr noundef %10, ptr noundef %6)
  store i32 %11, ptr %7, align 4, !tbaa !4
  %12 = load i32, ptr %7, align 4, !tbaa !4
  %13 = icmp eq i32 %12, 0
  br i1 %13, label %14, label %15

14:                                               ; preds = %2
  store i32 -1, ptr %3, align 4
  store i32 1, ptr %8, align 4
  br label %39

15:                                               ; preds = %2
  %16 = load i32, ptr %7, align 4, !tbaa !4
  %17 = load ptr, ptr %5, align 8, !tbaa !19
  %18 = getelementptr inbounds nuw %struct.opts_t, ptr %17, i32 0, i32 0
  store i32 %16, ptr %18, align 8, !tbaa !20
  %19 = load ptr, ptr %6, align 8, !tbaa !30
  %20 = load i8, ptr %19, align 1, !tbaa !34
  %21 = sext i8 %20 to i32
  %22 = icmp ne i32 %21, 44
  br i1 %22, label %23, label %27

23:                                               ; preds = %15
  %24 = load ptr, ptr @stderr, align 8, !tbaa !31
  %25 = load ptr, ptr %4, align 8, !tbaa !30
  %26 = call i32 (ptr, ptr, ...) @fprintf(ptr noundef %24, ptr noundef @.str.11, ptr noundef %25) #8
  store i32 -1, ptr %3, align 4
  store i32 1, ptr %8, align 4
  br label %39

27:                                               ; preds = %15
  %28 = load ptr, ptr %6, align 8, !tbaa !30
  %29 = getelementptr inbounds i8, ptr %28, i64 1
  store ptr %29, ptr %4, align 8, !tbaa !30
  %30 = load ptr, ptr %4, align 8, !tbaa !30
  store ptr null, ptr %9, align 8, !tbaa !30
  %31 = call i32 @readPos(ptr noundef %30, ptr noundef %9)
  store i32 %31, ptr %7, align 4, !tbaa !4
  %32 = load i32, ptr %7, align 4, !tbaa !4
  %33 = icmp ugt i32 %32, 1
  br i1 %33, label %34, label %38

34:                                               ; preds = %27
  %35 = load i32, ptr %7, align 4, !tbaa !4
  %36 = load ptr, ptr %5, align 8, !tbaa !19
  %37 = getelementptr inbounds nuw %struct.opts_t, ptr %36, i32 0, i32 1
  store i32 %35, ptr %37, align 4, !tbaa !21
  store i32 0, ptr %3, align 4
  store i32 1, ptr %8, align 4
  br label %39

38:                                               ; preds = %27
  store i32 -1, ptr %3, align 4
  store i32 1, ptr %8, align 4
  br label %39

39:                                               ; preds = %38, %34, %23, %14
  call void @llvm.lifetime.end.p0(i64 4, ptr %7) #8
  call void @llvm.lifetime.end.p0(i64 8, ptr %6) #8
  %40 = load i32, ptr %3, align 4
  ret i32 %40
}