; Function Attrs: nofree nounwind uwtable
define internal fastcc range(i32 -1, 1) i32 @setTwo(ptr noundef %0) unnamed_addr #3 {
  %2 = alloca ptr, align 8
  %3 = alloca ptr, align 8
  call void @llvm.lifetime.start.p0(i64 8, ptr nonnull %2) #11
  %4 = call i64 @strtoul(ptr noundef %0, ptr noundef nonnull %2, i32 noundef 10) #11
  %5 = load ptr, ptr %2, align 8, !tbaa !14
  %6 = icmp eq ptr %0, %5
  %7 = icmp ugt i64 %4, 4294967295
  %or.cond.i = select i1 %6, i1 true, i1 %7
  br i1 %or.cond.i, label %8, label %11

8:                                                ; preds = %1
  %9 = load ptr, ptr @stderr, align 8, !tbaa !18
  %10 = tail call i32 (ptr, ptr, ...) @fprintf(ptr noundef %9, ptr noundef nonnull @.str.12, ptr noundef %0) #12
  br label %readPos.exit.thread

11:                                               ; preds = %1
  %12 = icmp eq i64 %4, 0
  br i1 %12, label %13, label %readPos.exit

13:                                               ; preds = %11
  %14 = load ptr, ptr @stderr, align 8, !tbaa !18
  %15 = tail call i32 (ptr, ptr, ...) @fprintf(ptr noundef %14, ptr noundef nonnull @.str.13, ptr noundef %0, i32 noundef 1) #12
  br label %readPos.exit.thread

readPos.exit:                                     ; preds = %11
  %16 = trunc nuw i64 %4 to i32
  store i32 %16, ptr @opts.0, align 8, !tbaa !20
  %17 = load i8, ptr %5, align 1, !tbaa !19
  %.not = icmp eq i8 %17, 44
  br i1 %.not, label %21, label %18

18:                                               ; preds = %readPos.exit
  %19 = load ptr, ptr @stderr, align 8, !tbaa !18
  %20 = tail call i32 (ptr, ptr, ...) @fprintf(ptr noundef %19, ptr noundef nonnull @.str.11, ptr noundef %0) #12
  br label %readPos.exit.thread

21:                                               ; preds = %readPos.exit
  %22 = getelementptr inbounds nuw i8, ptr %5, i64 1
  store ptr null, ptr %3, align 8, !tbaa !14
  %23 = call i64 @strtoul(ptr noundef nonnull %22, ptr noundef nonnull %3, i32 noundef 10) #11
  %24 = load ptr, ptr %3, align 8, !tbaa !14
  %25 = icmp eq ptr %22, %24
  %26 = icmp ugt i64 %23, 4294967295
  %or.cond.i11 = select i1 %25, i1 true, i1 %26
  br i1 %or.cond.i11, label %27, label %30

27:                                               ; preds = %21
  %28 = load ptr, ptr @stderr, align 8, !tbaa !18
  %29 = tail call i32 (ptr, ptr, ...) @fprintf(ptr noundef %28, ptr noundef nonnull @.str.12, ptr noundef nonnull %22) #12
  br label %readPos.exit.thread

30:                                               ; preds = %21
  %trunc = trunc nuw i64 %23 to i32
  switch i32 %trunc, label %34 [
    i32 0, label %31
    i32 1, label %readPos.exit.thread
  ]

31:                                               ; preds = %30
  %32 = load ptr, ptr @stderr, align 8, !tbaa !18
  %33 = tail call i32 (ptr, ptr, ...) @fprintf(ptr noundef %32, ptr noundef nonnull @.str.13, ptr noundef nonnull %22, i32 noundef 1) #12
  br label %readPos.exit.thread

34:                                               ; preds = %30
  store i32 %trunc, ptr @opts.1, align 4, !tbaa !21
  br label %readPos.exit.thread

readPos.exit.thread:                              ; preds = %30, %31, %27, %13, %8, %34, %18
  %.0 = phi i32 [ -1, %18 ], [ 0, %34 ], [ -1, %8 ], [ -1, %13 ], [ -1, %27 ], [ -1, %31 ], [ -1, %30 ]
  call void @llvm.lifetime.end.p0(i64 8, ptr nonnull %2) #11
  ret i32 %.0
}